target datalayout = "e-m:e-p270:32:32-p271:32:32-p272:64:64-i64:64-i128:128-f80:128-n8:16:32:64-S128"
target triple = "x86_64-pc-linux-gnu"

%struct.Vec_Wec_t_ = type { i32, i32, ptr }
%struct.Vec_Int_t_ = type { i32, i32, ptr }

; Function Attrs: inlinehint nounwind uwtable
define internal i32 @Vec_IntSize(ptr noundef %0) #2 {
  %2 = alloca ptr, align 8
  store ptr %0, ptr %2, align 8, !tbaa !54
  %3 = load ptr, ptr %2, align 8, !tbaa !54
  %4 = getelementptr inbounds nuw %struct.Vec_Int_t_, ptr %3, i32 0, i32 1
  %5 = load i32, ptr %4, align 4, !tbaa !55
  ret i32 %5
}

; Function Attrs: inlinehint nounwind uwtable
define internal i32 @Vec_WecLevelSize(ptr noundef %0, i32 noundef %1) #2 {
  %3 = alloca ptr, align 8
  %4 = alloca i32, align 4
  store ptr %0, ptr %3, align 8, !tbaa !45
  store i32 %1, ptr %4, align 4, !tbaa !3
  %5 = load ptr, ptr %3, align 8, !tbaa !45
  %6 = getelementptr inbounds nuw %struct.Vec_Wec_t_, ptr %5, i32 0, i32 2
  %7 = load ptr, ptr %6, align 8, !tbaa !48
  %8 = load i32, ptr %4, align 4, !tbaa !3
  %9 = sext i32 %8 to i64
  %10 = getelementptr inbounds %struct.Vec_Int_t_, ptr %7, i64 %9
  %11 = call i32 @Vec_IntSize(ptr noundef %10)
  ret i32 %11
}

; Function Attrs: nounwind uwtable
define i32 @Abc_SuppFindVar(ptr noundef %0, ptr noundef %1, i32 noundef %2) #0 {
  %4 = alloca ptr, align 8
  %5 = alloca ptr, align 8
  %6 = alloca i32, align 4
  %7 = alloca i32, align 4
  %8 = alloca i32, align 4
  %9 = alloca i32, align 4
  store ptr %0, ptr %4, align 8, !tbaa !45
  store ptr %1, ptr %5, align 8, !tbaa !45
  store i32 %2, ptr %6, align 4, !tbaa !3
  call void @llvm.lifetime.start.p0(i64 4, ptr %7) #13
  call void @llvm.lifetime.start.p0(i64 4, ptr %8) #13
  store i32 -1, ptr %8, align 4, !tbaa !3
  call void @llvm.lifetime.start.p0(i64 4, ptr %9) #13
  store i32 -1, ptr %9, align 4, !tbaa !3
  store i32 0, ptr %7, align 4, !tbaa !3
  br label %10

10:                                               ; preds = %35, %3
  %11 = load i32, ptr %7, align 4, !tbaa !3
  %12 = load i32, ptr %6, align 4, !tbaa !3
  %13 = icmp slt i32 %11, %12
  br i1 %13, label %14, label %38

14:                                               ; preds = %10
  %15 = load ptr, ptr %4, align 8, !tbaa !45
  %16 = load i32, ptr %7, align 4, !tbaa !3
  %17 = call i32 @Vec_WecLevelSize(ptr noundef %15, i32 noundef %16)
  %18 = icmp ne i32 %17, 0
  br i1 %18, label %19, label %20

19:                                               ; preds = %14
  br label %35

20:                                               ; preds = %14
  %21 = load i32, ptr %8, align 4, !tbaa !3
  %22 = icmp eq i32 %21, -1
  br i1 %22, label %29, label %23

23:                                               ; preds = %20
  %24 = load i32, ptr %9, align 4, !tbaa !3
  %25 = load ptr, ptr %5, align 8, !tbaa !45
  %26 = load i32, ptr %7, align 4, !tbaa !3
  %27 = call i32 @Vec_WecLevelSize(ptr noundef %25, i32 noundef %26)
  %28 = icmp sgt i32 %24, %27
  br i1 %28, label %29, label %34

29:                                               ; preds = %23, %20
  %30 = load i32, ptr %7, align 4, !tbaa !3
  store i32 %30, ptr %8, align 4, !tbaa !3
  %31 = load ptr, ptr %5, align 8, !tbaa !45
  %32 = load i32, ptr %7, align 4, !tbaa !3
  %33 = call i32 @Vec_WecLevelSize(ptr noundef %31, i32 noundef %32)
  store i32 %33, ptr %9, align 4, !tbaa !3
  br label %34

34:                                               ; preds = %29, %23
  br label %35

35:                                               ; preds = %34, %19
  %36 = load i32, ptr %7, align 4, !tbaa !3
  %37 = add nsw i32 %36, 1
  store i32 %37, ptr %7, align 4, !tbaa !3
  br label %10, !llvm.loop !47

38:                                               ; preds = %10
  %39 = load i32, ptr %8, align 4, !tbaa !3
  call void @llvm.lifetime.end.p0(i64 4, ptr %9) #13
  call void @llvm.lifetime.end.p0(i64 4, ptr %8) #13
  call void @llvm.lifetime.end.p0(i64 4, ptr %7) #13
  ret i32 %39
}