; Function Attrs: nofree norecurse nosync nounwind memory(read, inaccessiblemem: none) uwtable
define i32 @Abc_SuppFindVar(ptr noundef readonly captures(none) %0, ptr noundef readonly captures(none) %1, i32 noundef %2) local_unnamed_addr #13 {
  %4 = icmp sgt i32 %2, 0
  br i1 %4, label %.lr.ph, label %._crit_edge

.lr.ph:                                           ; preds = %3
  %5 = getelementptr i8, ptr %0, i64 8
  %.val = load ptr, ptr %5, align 8, !tbaa !41
  %6 = getelementptr i8, ptr %1, i64 8
  %wide.trip.count = zext nneg i32 %2 to i64
  br label %7

7:                                                ; preds = %.lr.ph, %._crit_edge23
  %indvars.iv = phi i64 [ 0, %.lr.ph ], [ %indvars.iv.next, %._crit_edge23 ]
  %.021 = phi i32 [ -1, %.lr.ph ], [ %.1, %._crit_edge23 ]
  %.01220 = phi i32 [ -1, %.lr.ph ], [ %.113, %._crit_edge23 ]
  %8 = getelementptr %struct.Vec_Int_t_, ptr %.val, i64 %indvars.iv, i32 1
  %.val.i = load i32, ptr %8, align 4, !tbaa !44
  %.not = icmp eq i32 %.val.i, 0
  br i1 %.not, label %9, label %._crit_edge23

9:                                                ; preds = %7
  %10 = icmp eq i32 %.01220, -1
  %.val16.pre = load ptr, ptr %6, align 8, !tbaa !41
  %.phi.trans.insert = getelementptr %struct.Vec_Int_t_, ptr %.val16.pre, i64 %indvars.iv, i32 1
  %.val.i18.pre = load i32, ptr %.phi.trans.insert, align 4, !tbaa !44
  %11 = icmp sgt i32 %.021, %.val.i18.pre
  %or.cond = select i1 %10, i1 true, i1 %11
  %12 = trunc nuw nsw i64 %indvars.iv to i32
  %spec.select = select i1 %or.cond, i32 %12, i32 %.01220
  %spec.select25 = select i1 %or.cond, i32 %.val.i18.pre, i32 %.021
  br label %._crit_edge23

._crit_edge23:                                    ; preds = %9, %7
  %.113 = phi i32 [ %.01220, %7 ], [ %spec.select, %9 ]
  %.1 = phi i32 [ %.021, %7 ], [ %spec.select25, %9 ]
  %indvars.iv.next = add nuw nsw i64 %indvars.iv, 1
  %exitcond.not = icmp eq i64 %indvars.iv.next, %wide.trip.count
  br i1 %exitcond.not, label %._crit_edge, label %7, !llvm.loop !47

._crit_edge:                                      ; preds = %._crit_edge23, %3
  %.012.lcssa = phi i32 [ -1, %3 ], [ %.113, %._crit_edge23 ]
  ret i32 %.012.lcssa
}